target datalayout = "e-m:e-p270:32:32-p271:32:32-p272:64:64-i64:64-i128:128-f80:128-n8:16:32:64-S128"
target triple = "x86_64-pc-linux-gnu"

%struct.client = type { i64, i64, ptr, i8, i8, i8, i8, i32, ptr, ptr, ptr, ptr, ptr, i64, i64, i32, ptr, i32, i32, ptr, i64, ptr, ptr, ptr, ptr, ptr, i32, i32, i64, ptr, i64, ptr, i64, i64, i64, i32, ptr, i64, i64, i32, i32, i32, i32, i64, i64, ptr, i64, i64, i64, i64, i64, i64, i64, i64, [41 x i8], i32, ptr, i32, i32, i64, %struct.multiState, %struct.blockingState, i64, ptr, ptr, ptr, ptr, ptr, ptr, ptr, ptr, ptr, ptr, ptr, ptr, ptr, ptr, i64, ptr, i64, i32, ptr, ptr, ptr, i64, %struct.listNode, i64, i64, i32, i64, ptr }
%struct.multiState = type { ptr, i32, i32, i32, i64, i32 }
%struct.blockingState = type { i32, i64, i32, ptr, i32, i32, i64, ptr, ptr, i64 }
%struct.listNode = type { ptr, ptr, ptr }

; Function Attrs: nounwind uwtable
define dso_local void @mgetCommand(ptr noundef %0) #0 {
  %2 = alloca ptr, align 8
  %3 = alloca i32, align 4
  %4 = alloca ptr, align 8
  store ptr %0, ptr %2, align 8, !tbaa !5
  call void @llvm.lifetime.start.p0(i64 4, ptr %3) #10
  %5 = load ptr, ptr %2, align 8, !tbaa !5
  %6 = load ptr, ptr %2, align 8, !tbaa !5
  %7 = getelementptr inbounds nuw %struct.client, ptr %6, i32 0, i32 15
  %8 = load i32, ptr %7, align 8, !tbaa !61
  %9 = sub nsw i32 %8, 1
  %10 = sext i32 %9 to i64
  call void @addReplyArrayLen(ptr noundef %5, i64 noundef %10)
  store i32 1, ptr %3, align 4, !tbaa !10
  br label %11

11:                                               ; preds = %45, %1
  %12 = load i32, ptr %3, align 4, !tbaa !10
  %13 = load ptr, ptr %2, align 8, !tbaa !5
  %14 = getelementptr inbounds nuw %struct.client, ptr %13, i32 0, i32 15
  %15 = load i32, ptr %14, align 8, !tbaa !61
  %16 = icmp slt i32 %12, %15
  br i1 %16, label %17, label %48

17:                                               ; preds = %11
  call void @llvm.lifetime.start.p0(i64 8, ptr %4) #10
  %18 = load ptr, ptr %2, align 8, !tbaa !5
  %19 = getelementptr inbounds nuw %struct.client, ptr %18, i32 0, i32 8
  %20 = load ptr, ptr %19, align 8, !tbaa !18
  %21 = load ptr, ptr %2, align 8, !tbaa !5
  %22 = getelementptr inbounds nuw %struct.client, ptr %21, i32 0, i32 16
  %23 = load ptr, ptr %22, align 8, !tbaa !63
  %24 = load i32, ptr %3, align 4, !tbaa !10
  %25 = sext i32 %24 to i64
  %26 = getelementptr inbounds ptr, ptr %23, i64 %25
  %27 = load ptr, ptr %26, align 8, !tbaa !12
  %28 = call ptr @lookupKeyRead(ptr noundef %20, ptr noundef %27)
  store ptr %28, ptr %4, align 8, !tbaa !12
  %29 = load ptr, ptr %4, align 8, !tbaa !12
  %30 = icmp eq ptr %29, null
  br i1 %30, label %31, label %33

31:                                               ; preds = %17
  %32 = load ptr, ptr %2, align 8, !tbaa !5
  call void @addReplyNull(ptr noundef %32)
  br label %44

33:                                               ; preds = %17
  %34 = load ptr, ptr %4, align 8, !tbaa !12
  %35 = load i32, ptr %34, align 8
  %36 = and i32 %35, 15
  %37 = icmp ne i32 %36, 0
  br i1 %37, label %38, label %40

38:                                               ; preds = %33
  %39 = load ptr, ptr %2, align 8, !tbaa !5
  call void @addReplyNull(ptr noundef %39)
  br label %43

40:                                               ; preds = %33
  %41 = load ptr, ptr %2, align 8, !tbaa !5
  %42 = load ptr, ptr %4, align 8, !tbaa !12
  call void @addReplyBulk(ptr noundef %41, ptr noundef %42)
  br label %43

43:                                               ; preds = %40, %38
  br label %44

44:                                               ; preds = %43, %31
  call void @llvm.lifetime.end.p0(i64 8, ptr %4) #10
  br label %45

45:                                               ; preds = %44
  %46 = load i32, ptr %3, align 4, !tbaa !10
  %47 = add nsw i32 %46, 1
  store i32 %47, ptr %3, align 4, !tbaa !10
  br label %11, !llvm.loop !88

48:                                               ; preds = %11
  call void @llvm.lifetime.end.p0(i64 4, ptr %3) #10
  ret void
}