; Function Attrs: nounwind uwtable
define dso_local void @mgetCommand(ptr noundef %0) local_unnamed_addr #0 {
  %2 = getelementptr inbounds nuw i8, ptr %0, i64 88
  %3 = load i32, ptr %2, align 8, !tbaa !59
  %4 = add nsw i32 %3, -1
  %5 = sext i32 %4 to i64
  tail call void @addReplyArrayLen(ptr noundef %0, i64 noundef %5) #11
  %6 = load i32, ptr %2, align 8, !tbaa !59
  %7 = icmp sgt i32 %6, 1
  br i1 %7, label %.lr.ph, label %._crit_edge

.lr.ph:                                           ; preds = %1
  %8 = getelementptr inbounds nuw i8, ptr %0, i64 32
  %9 = getelementptr inbounds nuw i8, ptr %0, i64 96
  br label %10

10:                                               ; preds = %.lr.ph, %23
  %indvars.iv = phi i64 [ 1, %.lr.ph ], [ %indvars.iv.next, %23 ]
  %11 = load ptr, ptr %8, align 8, !tbaa !32
  %12 = load ptr, ptr %9, align 8, !tbaa !9
  %13 = getelementptr inbounds nuw ptr, ptr %12, i64 %indvars.iv
  %14 = load ptr, ptr %13, align 8, !tbaa !29
  %15 = tail call ptr @lookupKeyRead(ptr noundef %11, ptr noundef %14) #11
  %16 = icmp eq ptr %15, null
  br i1 %16, label %17, label %18

17:                                               ; preds = %10
  tail call void @addReplyNull(ptr noundef nonnull %0) #11
  br label %23

18:                                               ; preds = %10
  %19 = load i32, ptr %15, align 8
  %20 = and i32 %19, 15
  %.not = icmp eq i32 %20, 0
  br i1 %.not, label %22, label %21

21:                                               ; preds = %18
  tail call void @addReplyNull(ptr noundef nonnull %0) #11
  br label %23

22:                                               ; preds = %18
  tail call void @addReplyBulk(ptr noundef nonnull %0, ptr noundef nonnull %15) #11
  br label %23

23:                                               ; preds = %21, %22, %17
  %indvars.iv.next = add nuw nsw i64 %indvars.iv, 1
  %24 = load i32, ptr %2, align 8, !tbaa !59
  %25 = sext i32 %24 to i64
  %26 = icmp slt i64 %indvars.iv.next, %25
  br i1 %26, label %10, label %._crit_edge, !llvm.loop !80

._crit_edge:                                      ; preds = %23, %1
  ret void
}